target datalayout = "e-m:e-p270:32:32-p271:32:32-p272:64:64-i64:64-i128:128-f80:128-n8:16:32:64-S128"
target triple = "x86_64-pc-linux-gnu"

%struct._object = type { %union.anon, ptr }
%union.anon = type { i64 }
%struct._err_stackitem = type { ptr, ptr }
%union._PyStackRef = type { i64 }
%struct._PyGenObject = type { %struct._object, ptr, ptr, ptr, %struct._err_stackitem, ptr, i8, i8, i8, i8, %struct._PyInterpreterFrame }
%struct._PyInterpreterFrame = type { %union._PyStackRef, ptr, %union._PyStackRef, ptr, ptr, ptr, ptr, ptr, ptr, i16, i8, i8, [1 x %union._PyStackRef] }
%struct.anon = type { i32, i32 }

@_Py_NoneStruct = external global %struct._object, align 8

; Function Attrs: alwaysinline nounwind uwtable
define internal void @Py_INCREF(ptr noundef %0) #3 {
  %2 = alloca ptr, align 8
  %3 = alloca i32, align 4
  %4 = alloca i32, align 4
  store ptr %0, ptr %2, align 8, !tbaa !11
  call void @llvm.lifetime.start.p0(i64 4, ptr %3) #7
  %5 = load ptr, ptr %2, align 8, !tbaa !11
  %6 = getelementptr inbounds nuw %struct._object, ptr %5, i32 0, i32 0
  %7 = getelementptr inbounds nuw %struct.anon, ptr %6, i32 0, i32 0
  %8 = load i32, ptr %7, align 8, !tbaa !13
  store i32 %8, ptr %3, align 4, !tbaa !14
  %9 = load i32, ptr %3, align 4, !tbaa !14
  %10 = icmp slt i32 %9, 0
  br i1 %10, label %11, label %12

11:                                               ; preds = %1
  store i32 1, ptr %4, align 4
  br label %18

12:                                               ; preds = %1
  %13 = load i32, ptr %3, align 4, !tbaa !14
  %14 = add i32 %13, 1
  %15 = load ptr, ptr %2, align 8, !tbaa !11
  %16 = getelementptr inbounds nuw %struct._object, ptr %15, i32 0, i32 0
  %17 = getelementptr inbounds nuw %struct.anon, ptr %16, i32 0, i32 0
  store i32 %14, ptr %17, align 8, !tbaa !13
  store i32 0, ptr %4, align 4
  br label %18

18:                                               ; preds = %12, %11
  call void @llvm.lifetime.end.p0(i64 4, ptr %3) #7
  %19 = load i32, ptr %4, align 4
  switch i32 %19, label %21 [
    i32 0, label %20
    i32 1, label %20
  ]

20:                                               ; preds = %18, %18
  ret void

21:                                               ; preds = %18
  unreachable
}

; Function Attrs: inlinehint nounwind uwtable
define internal ptr @_Py_NewRef(ptr noundef %0) #2 {
  %2 = alloca ptr, align 8
  store ptr %0, ptr %2, align 8, !tbaa !11
  %3 = load ptr, ptr %2, align 8, !tbaa !11
  call void @Py_INCREF(ptr noundef %3)
  %4 = load ptr, ptr %2, align 8, !tbaa !11
  ret ptr %4
}

; Function Attrs: inlinehint nounwind uwtable
define internal i64 @_PyFrame_StackPeek(ptr noundef %0) #2 {
  %2 = alloca %union._PyStackRef, align 8
  %3 = alloca ptr, align 8
  store ptr %0, ptr %3, align 8, !tbaa !37
  %4 = load ptr, ptr %3, align 8, !tbaa !37
  %5 = getelementptr inbounds nuw %struct._PyInterpreterFrame, ptr %4, i32 0, i32 8
  %6 = load ptr, ptr %5, align 8, !tbaa !41
  %7 = getelementptr %union._PyStackRef, ptr %6, i64 -1
  call void @llvm.memcpy.p0.p0.i64(ptr align 8 %2, ptr align 8 %7, i64 8, i1 false), !tbaa.struct !42
  %8 = getelementptr inbounds nuw %union._PyStackRef, ptr %2, i32 0, i32 0
  %9 = load i64, ptr %8, align 8
  ret i64 %9
}

; Function Attrs: nounwind uwtable
define dso_local ptr @_PyGen_yf(ptr noundef %0) #0 {
  %2 = alloca ptr, align 8
  %3 = alloca ptr, align 8
  %4 = alloca ptr, align 8
  %5 = alloca %union._PyStackRef, align 8
  store ptr %0, ptr %3, align 8, !tbaa !4
  %6 = load ptr, ptr %3, align 8, !tbaa !4
  %7 = getelementptr inbounds nuw %struct._PyGenObject, ptr %6, i32 0, i32 9
  %8 = load i8, ptr %7, align 1, !tbaa !16
  %9 = sext i8 %8 to i32
  %10 = icmp eq i32 %9, -1
  br i1 %10, label %11, label %20

11:                                               ; preds = %1
  call void @llvm.lifetime.start.p0(i64 8, ptr %4) #7
  %12 = load ptr, ptr %3, align 8, !tbaa !4
  %13 = getelementptr inbounds nuw %struct._PyGenObject, ptr %12, i32 0, i32 10
  store ptr %13, ptr %4, align 8, !tbaa !37
  %14 = load ptr, ptr %4, align 8, !tbaa !37
  %15 = call i64 @_PyFrame_StackPeek(ptr noundef %14)
  %16 = getelementptr inbounds nuw %union._PyStackRef, ptr %5, i32 0, i32 0
  store i64 %15, ptr %16, align 8
  %17 = load i64, ptr %5, align 8, !tbaa !13
  %18 = inttoptr i64 %17 to ptr
  %19 = call ptr @_Py_NewRef(ptr noundef %18)
  store ptr %19, ptr %2, align 8
  call void @llvm.lifetime.end.p0(i64 8, ptr %4) #7
  br label %21

20:                                               ; preds = %1
  store ptr null, ptr %2, align 8
  br label %21

21:                                               ; preds = %20, %11
  %22 = load ptr, ptr %2, align 8
  ret ptr %22
}

; Function Attrs: nounwind uwtable
define internal ptr @gen_getyieldfrom(ptr noundef %0, ptr noundef %1) #0 {
  %3 = alloca ptr, align 8
  %4 = alloca ptr, align 8
  %5 = alloca ptr, align 8
  %6 = alloca ptr, align 8
  %7 = alloca i32, align 4
  store ptr %0, ptr %4, align 8, !tbaa !11
  store ptr %1, ptr %5, align 8, !tbaa !50
  call void @llvm.lifetime.start.p0(i64 8, ptr %6) #7
  %8 = load ptr, ptr %4, align 8, !tbaa !11
  %9 = call ptr @_PyGen_yf(ptr noundef %8)
  store ptr %9, ptr %6, align 8, !tbaa !11
  %10 = load ptr, ptr %6, align 8, !tbaa !11
  %11 = icmp eq ptr %10, null
  br i1 %11, label %12, label %13

12:                                               ; preds = %2
  store ptr @_Py_NoneStruct, ptr %3, align 8
  store i32 1, ptr %7, align 4
  br label %15

13:                                               ; preds = %2
  %14 = load ptr, ptr %6, align 8, !tbaa !11
  store ptr %14, ptr %3, align 8
  store i32 1, ptr %7, align 4
  br label %15

15:                                               ; preds = %13, %12
  call void @llvm.lifetime.end.p0(i64 8, ptr %6) #7
  %16 = load ptr, ptr %3, align 8
  ret ptr %16
}