; Function Attrs: mustprogress nofree norecurse nosync nounwind willreturn memory(readwrite, inaccessiblemem: none) uwtable
define internal noundef nonnull ptr @gen_getyieldfrom(ptr noundef readonly captures(none) %0, ptr readnone captures(none) %1) #0 {
  %3 = getelementptr inbounds nuw i8, ptr %0, i64 67
  %4 = load i8, ptr %3, align 1, !tbaa !7
  %5 = icmp eq i8 %4, -1
  br i1 %5, label %6, label %_PyGen_yf.exit

6:                                                ; preds = %2
  %7 = getelementptr i8, ptr %0, i64 136
  %.val.i = load ptr, ptr %7, align 8, !tbaa !29
  %8 = getelementptr i8, ptr %.val.i, i64 -8
  %.val.val.i = load i64, ptr %8, align 8, !tbaa !4
  %9 = inttoptr i64 %.val.val.i to ptr
  %10 = load i32, ptr %9, align 8, !tbaa !4
  %11 = icmp slt i32 %10, 0
  br i1 %11, label %_PyGen_yf.exit, label %12

12:                                               ; preds = %6
  %13 = add nuw i32 %10, 1
  store i32 %13, ptr %9, align 8, !tbaa !4
  br label %_PyGen_yf.exit

_PyGen_yf.exit:                                   ; preds = %2, %6, %12
  %.0.i = phi ptr [ null, %2 ], [ %9, %6 ], [ %9, %12 ]
  %14 = icmp eq ptr %.0.i, null
  %_Py_NoneStruct. = select i1 %14, ptr @_Py_NoneStruct, ptr %.0.i
  ret ptr %_Py_NoneStruct.
}